target datalayout = "e-m:e-p270:32:32-p271:32:32-p272:64:64-i64:64-i128:128-f80:128-n8:16:32:64-S128"
target triple = "x86_64-unknown-linux-gnu"

%class.btVector3 = type { [4 x float] }
%class.btHingeConstraint = type { %class.btTypedConstraint, [3 x %class.btJacobianEntry], [3 x %class.btJacobianEntry], %class.btTransform, %class.btTransform, float, float, %class.btAngularLimit, float, float, float, float, i8, i8, i8, i8, i8, float, i32, float, float, float, float }
%class.btTypedConstraint = type { ptr, %struct.btTypedObject, i32, %union.anon.0, float, i8, i8, i32, ptr, ptr, float, float, ptr }
%struct.btTypedObject = type { i32 }
%union.anon.0 = type { ptr }
%class.btJacobianEntry = type { %class.btVector3, %class.btVector3, %class.btVector3, %class.btVector3, %class.btVector3, float }
%class.btTransform = type { %class.btMatrix3x3, %class.btVector3 }
%class.btMatrix3x3 = type { [3 x %class.btVector3] }
%class.btAngularLimit = type <{ float, float, float, float, float, float, float, i8, [3 x i8] }>
%"struct.btTypedConstraint::btConstraintInfo1" = type { i32, i32 }

; Function Attrs: mustprogress nounwind uwtable
define dso_local void @_ZN17btHingeConstraint18getInfo1NonVirtualEPN17btTypedConstraint17btConstraintInfo1E(ptr noundef nonnull align 8 dereferenceable(792) %this, ptr noundef %info) #1 align 2 {
entry:
  %this.addr = alloca ptr, align 8
  %info.addr = alloca ptr, align 8
  store ptr %this, ptr %this.addr, align 8
  store ptr %info, ptr %info.addr, align 8
  %this1 = load ptr, ptr %this.addr, align 8
  %m_useSolveConstraintObsolete = getelementptr inbounds %class.btHingeConstraint, ptr %this1, i32 0, i32 14
  %0 = load i8, ptr %m_useSolveConstraintObsolete, align 2
  %tobool = trunc i8 %0 to i1
  br i1 %tobool, label %if.then, label %if.else

if.then:                                          ; preds = %entry
  %1 = load ptr, ptr %info.addr, align 8
  %m_numConstraintRows = getelementptr inbounds %"struct.btTypedConstraint::btConstraintInfo1", ptr %1, i32 0, i32 0
  store i32 0, ptr %m_numConstraintRows, align 4
  %2 = load ptr, ptr %info.addr, align 8
  %nub = getelementptr inbounds %"struct.btTypedConstraint::btConstraintInfo1", ptr %2, i32 0, i32 1
  store i32 0, ptr %nub, align 4
  br label %if.end

if.else:                                          ; preds = %entry
  %3 = load ptr, ptr %info.addr, align 8
  %m_numConstraintRows2 = getelementptr inbounds %"struct.btTypedConstraint::btConstraintInfo1", ptr %3, i32 0, i32 0
  store i32 6, ptr %m_numConstraintRows2, align 4
  %4 = load ptr, ptr %info.addr, align 8
  %nub3 = getelementptr inbounds %"struct.btTypedConstraint::btConstraintInfo1", ptr %4, i32 0, i32 1
  store i32 0, ptr %nub3, align 4
  br label %if.end

if.end:                                           ; preds = %if.else, %if.then
  ret void
}