; Function Attrs: mustprogress nofree norecurse nosync nounwind willreturn memory(argmem: readwrite) uwtable
define dso_local void @_ZN17btHingeConstraint18getInfo1NonVirtualEPN17btTypedConstraint17btConstraintInfo1E(ptr nocapture noundef nonnull readonly align 8 dereferenceable(792) %this, ptr nocapture noundef writeonly %info) local_unnamed_addr #8 align 2 {
entry:
  %m_useSolveConstraintObsolete = getelementptr inbounds i8, ptr %this, i64 762
  %0 = load i8, ptr %m_useSolveConstraintObsolete, align 2
  %1 = and i8 %0, 1
  %tobool.not = icmp eq i8 %1, 0
  %spec.select = select i1 %tobool.not, i32 6, i32 0
  store i32 %spec.select, ptr %info, align 4
  %2 = getelementptr inbounds i8, ptr %info, i64 4
  store i32 0, ptr %2, align 4
  ret void
}